target datalayout = "e-m:e-p270:32:32-p271:32:32-p272:64:64-i64:64-i128:128-f80:128-n8:16:32:64-S128"
target triple = "x86_64-pc-linux-gnu"

%struct.strvec = type { ptr, i64, i64 }
%struct.am_state = type { ptr, i32, i32, ptr, ptr, ptr, ptr, i64, %struct.object_id, i32, i32, i32, i32, i32, i32, i32, i32, i32, i32, i32, i32, %struct.strvec, ptr, i32, i32, i32, ptr, i32 }
%struct.object_id = type { [32 x i8], i32 }
%struct.__va_list_tag = type { i32, i32, ptr, ptr }

; Function Attrs: nounwind uwtable
define internal void @say(ptr noundef %0, ptr noundef %1, ptr noundef %2, ...) #0 {
  %4 = alloca ptr, align 8
  %5 = alloca ptr, align 8
  %6 = alloca ptr, align 8
  %7 = alloca [1 x %struct.__va_list_tag], align 16
  store ptr %0, ptr %4, align 8, !tbaa !47
  store ptr %1, ptr %5, align 8, !tbaa !29
  store ptr %2, ptr %6, align 8, !tbaa !11
  call void @llvm.lifetime.start.p0(i64 24, ptr %7) #14
  %8 = getelementptr inbounds [1 x %struct.__va_list_tag], ptr %7, i64 0, i64 0
  call void @llvm.va_start.p0(ptr %8)
  %9 = load ptr, ptr %4, align 8, !tbaa !47
  %10 = getelementptr inbounds nuw %struct.am_state, ptr %9, i32 0, i32 13
  %11 = load i32, ptr %10, align 4, !tbaa !80
  %12 = icmp ne i32 %11, 0
  br i1 %12, label %20, label %13

13:                                               ; preds = %3
  %14 = load ptr, ptr %5, align 8, !tbaa !29
  %15 = load ptr, ptr %6, align 8, !tbaa !11
  %16 = getelementptr inbounds [1 x %struct.__va_list_tag], ptr %7, i64 0, i64 0
  %17 = call i32 @vfprintf(ptr noundef %14, ptr noundef %15, ptr noundef %16) #14
  %18 = load ptr, ptr %5, align 8, !tbaa !29
  %19 = call i32 @putc(i32 noundef 10, ptr noundef %18)
  br label %20

20:                                               ; preds = %13, %3
  %21 = getelementptr inbounds [1 x %struct.__va_list_tag], ptr %7, i64 0, i64 0
  call void @llvm.va_end.p0(ptr %21)
  call void @llvm.lifetime.end.p0(i64 24, ptr %7) #14
  ret void
}