; Function Attrs: nofree nounwind uwtable
define internal void @say(ptr noundef nonnull readonly captures(none) %0, ptr noundef captures(none) %1, ptr noundef readonly captures(none) %2, ...) unnamed_addr #16 {
  %4 = alloca [1 x %struct.__va_list_tag], align 16
  call void @llvm.lifetime.start.p0(i64 24, ptr nonnull %4) #21
  call void @llvm.va_start.p0(ptr nonnull %4)
  %5 = getelementptr inbounds nuw i8, ptr %0, i64 108
  %6 = load i32, ptr %5, align 4, !tbaa !57
  %.not = icmp eq i32 %6, 0
  br i1 %.not, label %7, label %10

7:                                                ; preds = %3
  %8 = call i32 @vfprintf(ptr noundef %1, ptr noundef %2, ptr noundef nonnull %4) #21
  %9 = call i32 @putc(i32 noundef 10, ptr noundef %1)
  br label %10

10:                                               ; preds = %7, %3
  call void @llvm.va_end.p0(ptr nonnull %4)
  call void @llvm.lifetime.end.p0(i64 24, ptr nonnull %4) #21
  ret void
}